target datalayout = "e-m:e-p270:32:32-p271:32:32-p272:64:64-i64:64-i128:128-f80:128-n8:16:32:64-S128"
target triple = "x86_64-pc-linux-gnu"

%struct.Ssw_RarPars_t_ = type { i32, i32, i32, i32, i32, i32, i32, i32, i32, i32, i32, i32, i32, i32, i32, i32, i32, i32, i32, ptr, ptr }
%struct.Ssw_RarMan_t_ = type { ptr, i32, i32, ptr, ptr, ptr, ptr, ptr, ptr, ptr, ptr, ptr, ptr, i32, i32, ptr }
%struct.Aig_Man_t_ = type { ptr, ptr, ptr, ptr, ptr, ptr, ptr, %struct.Aig_Obj_t_, i32, i32, i32, i32, i32, i32, [7 x i32], i32, ptr, i32, ptr, i32, ptr, i32, i32, i32, ptr, i32, i32, i32, i32, i32, ptr, ptr, i32, ptr, ptr, i32, ptr, ptr, i32, i32, i32, ptr, ptr, ptr, ptr, ptr, ptr, ptr, ptr, ptr, ptr, ptr, ptr, ptr, ptr, i32, ptr, ptr, ptr, ptr, i32, i64, i64, i64, ptr, ptr }
%struct.Aig_Obj_t_ = type { %union.anon, ptr, ptr, i64, i32, i32, %union.anon.0 }
%union.anon = type { ptr }
%union.anon.0 = type { ptr }
%struct.Vec_Ptr_t_ = type { i32, i32, ptr }
%struct.Vec_Int_t_ = type { i32, i32, ptr }

; Function Attrs: inlinehint nounwind uwtable
define internal i32 @Vec_PtrSize(ptr noundef %0) #4 {
  %2 = alloca ptr, align 8
  store ptr %0, ptr %2, align 8, !tbaa !55
  %3 = load ptr, ptr %2, align 8, !tbaa !55
  %4 = getelementptr inbounds nuw %struct.Vec_Ptr_t_, ptr %3, i32 0, i32 1
  %5 = load i32, ptr %4, align 4, !tbaa !116
  ret i32 %5
}

; Function Attrs: inlinehint nounwind uwtable
define internal ptr @Vec_IntAlloc(i32 noundef %0) #4 {
  %2 = alloca i32, align 4
  %3 = alloca ptr, align 8
  store i32 %0, ptr %2, align 4, !tbaa !24
  call void @llvm.lifetime.start.p0(i64 8, ptr %3) #11
  %4 = call noalias ptr @malloc(i64 noundef 16) #13
  store ptr %4, ptr %3, align 8, !tbaa !61
  %5 = load i32, ptr %2, align 4, !tbaa !24
  %6 = icmp sgt i32 %5, 0
  br i1 %6, label %7, label %11

7:                                                ; preds = %1
  %8 = load i32, ptr %2, align 4, !tbaa !24
  %9 = icmp slt i32 %8, 16
  br i1 %9, label %10, label %11

10:                                               ; preds = %7
  store i32 16, ptr %2, align 4, !tbaa !24
  br label %11

11:                                               ; preds = %10, %7, %1
  %12 = load ptr, ptr %3, align 8, !tbaa !61
  %13 = getelementptr inbounds nuw %struct.Vec_Int_t_, ptr %12, i32 0, i32 1
  store i32 0, ptr %13, align 4, !tbaa !70
  %14 = load i32, ptr %2, align 4, !tbaa !24
  %15 = load ptr, ptr %3, align 8, !tbaa !61
  %16 = getelementptr inbounds nuw %struct.Vec_Int_t_, ptr %15, i32 0, i32 0
  store i32 %14, ptr %16, align 8, !tbaa !161
  %17 = load ptr, ptr %3, align 8, !tbaa !61
  %18 = getelementptr inbounds nuw %struct.Vec_Int_t_, ptr %17, i32 0, i32 0
  %19 = load i32, ptr %18, align 8, !tbaa !161
  %20 = icmp ne i32 %19, 0
  br i1 %20, label %21, label %28

21:                                               ; preds = %11
  %22 = load ptr, ptr %3, align 8, !tbaa !61
  %23 = getelementptr inbounds nuw %struct.Vec_Int_t_, ptr %22, i32 0, i32 0
  %24 = load i32, ptr %23, align 8, !tbaa !161
  %25 = sext i32 %24 to i64
  %26 = mul i64 4, %25
  %27 = call noalias ptr @malloc(i64 noundef %26) #13
  br label %29

28:                                               ; preds = %11
  br label %29

29:                                               ; preds = %28, %21
  %30 = phi ptr [ %27, %21 ], [ null, %28 ]
  %31 = load ptr, ptr %3, align 8, !tbaa !61
  %32 = getelementptr inbounds nuw %struct.Vec_Int_t_, ptr %31, i32 0, i32 2
  store ptr %30, ptr %32, align 8, !tbaa !72
  %33 = load ptr, ptr %3, align 8, !tbaa !61
  call void @llvm.lifetime.end.p0(i64 8, ptr %3) #11
  ret ptr %33
}

; Function Attrs: inlinehint nounwind uwtable
define internal ptr @Vec_PtrAlloc(i32 noundef %0) #4 {
  %2 = alloca i32, align 4
  %3 = alloca ptr, align 8
  store i32 %0, ptr %2, align 4, !tbaa !24
  call void @llvm.lifetime.start.p0(i64 8, ptr %3) #11
  %4 = call noalias ptr @malloc(i64 noundef 16) #13
  store ptr %4, ptr %3, align 8, !tbaa !55
  %5 = load i32, ptr %2, align 4, !tbaa !24
  %6 = icmp sgt i32 %5, 0
  br i1 %6, label %7, label %11

7:                                                ; preds = %1
  %8 = load i32, ptr %2, align 4, !tbaa !24
  %9 = icmp slt i32 %8, 8
  br i1 %9, label %10, label %11

10:                                               ; preds = %7
  store i32 8, ptr %2, align 4, !tbaa !24
  br label %11

11:                                               ; preds = %10, %7, %1
  %12 = load ptr, ptr %3, align 8, !tbaa !55
  %13 = getelementptr inbounds nuw %struct.Vec_Ptr_t_, ptr %12, i32 0, i32 1
  store i32 0, ptr %13, align 4, !tbaa !116
  %14 = load i32, ptr %2, align 4, !tbaa !24
  %15 = load ptr, ptr %3, align 8, !tbaa !55
  %16 = getelementptr inbounds nuw %struct.Vec_Ptr_t_, ptr %15, i32 0, i32 0
  store i32 %14, ptr %16, align 8, !tbaa !131
  %17 = load ptr, ptr %3, align 8, !tbaa !55
  %18 = getelementptr inbounds nuw %struct.Vec_Ptr_t_, ptr %17, i32 0, i32 0
  %19 = load i32, ptr %18, align 8, !tbaa !131
  %20 = icmp ne i32 %19, 0
  br i1 %20, label %21, label %28

21:                                               ; preds = %11
  %22 = load ptr, ptr %3, align 8, !tbaa !55
  %23 = getelementptr inbounds nuw %struct.Vec_Ptr_t_, ptr %22, i32 0, i32 0
  %24 = load i32, ptr %23, align 8, !tbaa !131
  %25 = sext i32 %24 to i64
  %26 = mul i64 8, %25
  %27 = call noalias ptr @malloc(i64 noundef %26) #13
  br label %29

28:                                               ; preds = %11
  br label %29

29:                                               ; preds = %28, %21
  %30 = phi ptr [ %27, %21 ], [ null, %28 ]
  %31 = load ptr, ptr %3, align 8, !tbaa !55
  %32 = getelementptr inbounds nuw %struct.Vec_Ptr_t_, ptr %31, i32 0, i32 2
  store ptr %30, ptr %32, align 8, !tbaa !56
  %33 = load ptr, ptr %3, align 8, !tbaa !55
  call void @llvm.lifetime.end.p0(i64 8, ptr %3) #11
  ret ptr %33
}

; Function Attrs: inlinehint nounwind uwtable
define internal i32 @Aig_ManObjNumMax(ptr noundef %0) #4 {
  %2 = alloca ptr, align 8
  store ptr %0, ptr %2, align 8, !tbaa !53
  %3 = load ptr, ptr %2, align 8, !tbaa !53
  %4 = getelementptr inbounds nuw %struct.Aig_Man_t_, ptr %3, i32 0, i32 4
  %5 = load ptr, ptr %4, align 8, !tbaa !121
  %6 = call i32 @Vec_PtrSize(ptr noundef %5)
  ret i32 %6
}

; Function Attrs: inlinehint nounwind uwtable
define internal i32 @Ssw_RarBitWordNum(i32 noundef %0) #4 {
  %2 = alloca i32, align 4
  store i32 %0, ptr %2, align 4, !tbaa !24
  %3 = load i32, ptr %2, align 4, !tbaa !24
  %4 = ashr i32 %3, 6
  %5 = load i32, ptr %2, align 4, !tbaa !24
  %6 = and i32 %5, 63
  %7 = icmp sgt i32 %6, 0
  %8 = zext i1 %7 to i32
  %9 = add nsw i32 %4, %8
  ret i32 %9
}

; Function Attrs: inlinehint nounwind uwtable
define internal i32 @Aig_ManRegNum(ptr noundef %0) #4 {
  %2 = alloca ptr, align 8
  store ptr %0, ptr %2, align 8, !tbaa !53
  %3 = load ptr, ptr %2, align 8, !tbaa !53
  %4 = getelementptr inbounds nuw %struct.Aig_Man_t_, ptr %3, i32 0, i32 8
  %5 = load i32, ptr %4, align 8, !tbaa !73
  ret i32 %5
}

; Function Attrs: nounwind uwtable
define internal ptr @Ssw_RarManStart(ptr noundef %0, ptr noundef %1) #0 {
  %3 = alloca ptr, align 8
  %4 = alloca ptr, align 8
  %5 = alloca ptr, align 8
  store ptr %0, ptr %3, align 8, !tbaa !53
  store ptr %1, ptr %4, align 8, !tbaa !3
  call void @llvm.lifetime.start.p0(i64 8, ptr %5) #11
  %6 = call noalias ptr @calloc(i64 noundef 1, i64 noundef 112) #14
  store ptr %6, ptr %5, align 8, !tbaa !27
  %7 = load ptr, ptr %3, align 8, !tbaa !53
  %8 = load ptr, ptr %5, align 8, !tbaa !27
  %9 = getelementptr inbounds nuw %struct.Ssw_RarMan_t_, ptr %8, i32 0, i32 3
  store ptr %7, ptr %9, align 8, !tbaa !29
  %10 = load ptr, ptr %4, align 8, !tbaa !3
  %11 = load ptr, ptr %5, align 8, !tbaa !27
  %12 = getelementptr inbounds nuw %struct.Ssw_RarMan_t_, ptr %11, i32 0, i32 0
  store ptr %10, ptr %12, align 8, !tbaa !49
  %13 = load ptr, ptr %3, align 8, !tbaa !53
  %14 = call i32 @Aig_ManRegNum(ptr noundef %13)
  %15 = load ptr, ptr %4, align 8, !tbaa !3
  %16 = getelementptr inbounds nuw %struct.Ssw_RarPars_t_, ptr %15, i32 0, i32 2
  %17 = load i32, ptr %16, align 8, !tbaa !13
  %18 = sdiv i32 %14, %17
  %19 = load ptr, ptr %5, align 8, !tbaa !27
  %20 = getelementptr inbounds nuw %struct.Ssw_RarMan_t_, ptr %19, i32 0, i32 1
  store i32 %18, ptr %20, align 8, !tbaa !142
  %21 = load ptr, ptr %4, align 8, !tbaa !3
  %22 = getelementptr inbounds nuw %struct.Ssw_RarPars_t_, ptr %21, i32 0, i32 2
  %23 = load i32, ptr %22, align 8, !tbaa !13
  %24 = shl i32 1, %23
  %25 = load ptr, ptr %5, align 8, !tbaa !27
  %26 = getelementptr inbounds nuw %struct.Ssw_RarMan_t_, ptr %25, i32 0, i32 1
  %27 = load i32, ptr %26, align 8, !tbaa !142
  %28 = mul nsw i32 %24, %27
  %29 = sext i32 %28 to i64
  %30 = call noalias ptr @calloc(i64 noundef %29, i64 noundef 4) #14
  %31 = load ptr, ptr %5, align 8, !tbaa !27
  %32 = getelementptr inbounds nuw %struct.Ssw_RarMan_t_, ptr %31, i32 0, i32 10
  store ptr %30, ptr %32, align 8, !tbaa !143
  %33 = load ptr, ptr %5, align 8, !tbaa !27
  %34 = getelementptr inbounds nuw %struct.Ssw_RarMan_t_, ptr %33, i32 0, i32 0
  %35 = load ptr, ptr %34, align 8, !tbaa !49
  %36 = getelementptr inbounds nuw %struct.Ssw_RarPars_t_, ptr %35, i32 0, i32 1
  %37 = load i32, ptr %36, align 4, !tbaa !12
  %38 = mul nsw i32 %37, 64
  %39 = sext i32 %38 to i64
  %40 = call noalias ptr @calloc(i64 noundef %39, i64 noundef 8) #14
  %41 = load ptr, ptr %5, align 8, !tbaa !27
  %42 = getelementptr inbounds nuw %struct.Ssw_RarMan_t_, ptr %41, i32 0, i32 11
  store ptr %40, ptr %42, align 8, !tbaa !144
  %43 = load ptr, ptr %3, align 8, !tbaa !53
  %44 = call i32 @Aig_ManRegNum(ptr noundef %43)
  %45 = call i32 @Ssw_RarBitWordNum(i32 noundef %44)
  %46 = load ptr, ptr %5, align 8, !tbaa !27
  %47 = getelementptr inbounds nuw %struct.Ssw_RarMan_t_, ptr %46, i32 0, i32 2
  store i32 %45, ptr %47, align 4, !tbaa !89
  %48 = load ptr, ptr %3, align 8, !tbaa !53
  %49 = call i32 @Aig_ManObjNumMax(ptr noundef %48)
  %50 = load ptr, ptr %5, align 8, !tbaa !27
  %51 = getelementptr inbounds nuw %struct.Ssw_RarMan_t_, ptr %50, i32 0, i32 0
  %52 = load ptr, ptr %51, align 8, !tbaa !49
  %53 = getelementptr inbounds nuw %struct.Ssw_RarPars_t_, ptr %52, i32 0, i32 1
  %54 = load i32, ptr %53, align 4, !tbaa !12
  %55 = mul nsw i32 %49, %54
  %56 = sext i32 %55 to i64
  %57 = mul i64 8, %56
  %58 = call noalias ptr @malloc(i64 noundef %57) #13
  %59 = load ptr, ptr %5, align 8, !tbaa !27
  %60 = getelementptr inbounds nuw %struct.Ssw_RarMan_t_, ptr %59, i32 0, i32 6
  store ptr %58, ptr %60, align 8, !tbaa !59
  %61 = load ptr, ptr %5, align 8, !tbaa !27
  %62 = getelementptr inbounds nuw %struct.Ssw_RarMan_t_, ptr %61, i32 0, i32 0
  %63 = load ptr, ptr %62, align 8, !tbaa !49
  %64 = getelementptr inbounds nuw %struct.Ssw_RarPars_t_, ptr %63, i32 0, i32 1
  %65 = load i32, ptr %64, align 4, !tbaa !12
  %66 = mul nsw i32 64, %65
  %67 = load ptr, ptr %5, align 8, !tbaa !27
  %68 = getelementptr inbounds nuw %struct.Ssw_RarMan_t_, ptr %67, i32 0, i32 2
  %69 = load i32, ptr %68, align 4, !tbaa !89
  %70 = mul nsw i32 %66, %69
  %71 = sext i32 %70 to i64
  %72 = mul i64 8, %71
  %73 = call noalias ptr @malloc(i64 noundef %72) #13
  %74 = load ptr, ptr %5, align 8, !tbaa !27
  %75 = getelementptr inbounds nuw %struct.Ssw_RarMan_t_, ptr %74, i32 0, i32 7
  store ptr %73, ptr %75, align 8, !tbaa !95
  %76 = call ptr @Vec_PtrAlloc(i32 noundef 100)
  %77 = load ptr, ptr %5, align 8, !tbaa !27
  %78 = getelementptr inbounds nuw %struct.Ssw_RarMan_t_, ptr %77, i32 0, i32 8
  store ptr %76, ptr %78, align 8, !tbaa !118
  %79 = call ptr @Vec_PtrAlloc(i32 noundef 100)
  %80 = load ptr, ptr %5, align 8, !tbaa !27
  %81 = getelementptr inbounds nuw %struct.Ssw_RarMan_t_, ptr %80, i32 0, i32 9
  store ptr %79, ptr %81, align 8, !tbaa !119
  %82 = call ptr @Vec_IntAlloc(i32 noundef 100)
  %83 = load ptr, ptr %5, align 8, !tbaa !27
  %84 = getelementptr inbounds nuw %struct.Ssw_RarMan_t_, ptr %83, i32 0, i32 12
  store ptr %82, ptr %84, align 8, !tbaa !62
  %85 = load ptr, ptr %5, align 8, !tbaa !27
  call void @llvm.lifetime.end.p0(i64 8, ptr %5) #11
  ret ptr %85
}