; Function Attrs: mustprogress nofree nounwind willreturn memory(readwrite, argmem: read) uwtable
define internal fastcc noalias noundef ptr @Ssw_RarManStart(ptr noundef %0, ptr noundef %1) unnamed_addr #10 {
  %3 = tail call noalias dereferenceable_or_null(112) ptr @calloc(i64 noundef 1, i64 noundef 112) #24
  %4 = getelementptr inbounds nuw i8, ptr %3, i64 16
  store ptr %0, ptr %4, align 8, !tbaa !14
  store ptr %1, ptr %3, align 8, !tbaa !33
  %5 = getelementptr i8, ptr %0, i64 104
  %.val24 = load i32, ptr %5, align 8, !tbaa !50
  %6 = getelementptr inbounds nuw i8, ptr %1, i64 8
  %7 = load i32, ptr %6, align 8, !tbaa !11
  %8 = sdiv i32 %.val24, %7
  %9 = getelementptr inbounds nuw i8, ptr %3, i64 8
  store i32 %8, ptr %9, align 8, !tbaa !139
  %10 = shl i32 %8, %7
  %11 = sext i32 %10 to i64
  %12 = tail call noalias ptr @calloc(i64 noundef %11, i64 noundef 4) #24
  %13 = getelementptr inbounds nuw i8, ptr %3, i64 72
  store ptr %12, ptr %13, align 8, !tbaa !140
  %14 = getelementptr inbounds nuw i8, ptr %1, i64 4
  %15 = load i32, ptr %14, align 4, !tbaa !10
  %16 = shl nsw i32 %15, 6
  %17 = sext i32 %16 to i64
  %18 = tail call noalias ptr @calloc(i64 noundef %17, i64 noundef 8) #24
  %19 = getelementptr inbounds nuw i8, ptr %3, i64 80
  store ptr %18, ptr %19, align 8, !tbaa !141
  %20 = ashr i32 %.val24, 6
  %21 = and i32 %.val24, 63
  %22 = icmp ne i32 %21, 0
  %23 = zext i1 %22 to i32
  %24 = add nsw i32 %20, %23
  %25 = getelementptr inbounds nuw i8, ptr %3, i64 12
  store i32 %24, ptr %25, align 4, !tbaa !74
  %26 = getelementptr i8, ptr %0, i64 32
  %.val25 = load ptr, ptr %26, align 8, !tbaa !112
  %27 = getelementptr i8, ptr %.val25, i64 4
  %.val25.val = load i32, ptr %27, align 4, !tbaa !100
  %28 = mul nsw i32 %.val25.val, %15
  %29 = sext i32 %28 to i64
  %30 = shl nsw i64 %29, 3
  %31 = tail call noalias ptr @malloc(i64 noundef %30) #21
  %32 = getelementptr inbounds nuw i8, ptr %3, i64 40
  store ptr %31, ptr %32, align 8, !tbaa !34
  %33 = mul nsw i32 %16, %24
  %34 = sext i32 %33 to i64
  %35 = shl nsw i64 %34, 3
  %36 = tail call noalias ptr @malloc(i64 noundef %35) #21
  %37 = getelementptr inbounds nuw i8, ptr %3, i64 48
  store ptr %36, ptr %37, align 8, !tbaa !75
  %38 = tail call noalias dereferenceable_or_null(16) ptr @malloc(i64 noundef 16) #21
  %39 = getelementptr inbounds nuw i8, ptr %38, i64 4
  store i32 0, ptr %39, align 4, !tbaa !100
  store i32 100, ptr %38, align 8, !tbaa !99
  %40 = tail call noalias dereferenceable_or_null(800) ptr @malloc(i64 noundef 800) #21
  %41 = getelementptr inbounds nuw i8, ptr %38, i64 8
  store ptr %40, ptr %41, align 8, !tbaa !36
  %42 = getelementptr inbounds nuw i8, ptr %3, i64 56
  store ptr %38, ptr %42, align 8, !tbaa !105
  %43 = tail call noalias dereferenceable_or_null(16) ptr @malloc(i64 noundef 16) #21
  %44 = getelementptr inbounds nuw i8, ptr %43, i64 4
  store i32 0, ptr %44, align 4, !tbaa !100
  store i32 100, ptr %43, align 8, !tbaa !99
  %45 = tail call noalias dereferenceable_or_null(800) ptr @malloc(i64 noundef 800) #21
  %46 = getelementptr inbounds nuw i8, ptr %43, i64 8
  store ptr %45, ptr %46, align 8, !tbaa !36
  %47 = getelementptr inbounds nuw i8, ptr %3, i64 64
  store ptr %43, ptr %47, align 8, !tbaa !106
  %48 = tail call noalias dereferenceable_or_null(16) ptr @malloc(i64 noundef 16) #21
  %49 = getelementptr inbounds nuw i8, ptr %48, i64 4
  store i32 0, ptr %49, align 4, !tbaa !129
  store i32 100, ptr %48, align 8, !tbaa !128
  %50 = tail call noalias dereferenceable_or_null(400) ptr @malloc(i64 noundef 400) #21
  %51 = getelementptr inbounds nuw i8, ptr %48, i64 8
  store ptr %50, ptr %51, align 8, !tbaa !47
  %52 = getelementptr inbounds nuw i8, ptr %3, i64 88
  store ptr %48, ptr %52, align 8, !tbaa !46
  ret ptr %3
}